target datalayout = "e-m:e-p270:32:32-p271:32:32-p272:64:64-i64:64-i128:128-f80:128-n8:16:32:64-S128"
target triple = "x86_64-pc-linux-gnu"

%struct.t_pdbinfo = type { i32, i32, i8, [6 x i8], float, float, i8, [6 x i32] }

; Function Attrs: inlinehint mustprogress nounwind uwtable
define linkonce_odr void @_ZSt9__fill_a1IPidEN9__gnu_cxx11__enable_ifIXsr11__is_scalarIT0_EE7__valueEvE6__typeET_S6_RKS3_(ptr noundef %0, ptr noundef %1, ptr noundef nonnull align 8 dereferenceable(8) %2) #8 comdat {
  %4 = alloca ptr, align 8
  %5 = alloca ptr, align 8
  %6 = alloca ptr, align 8
  %7 = alloca double, align 8
  store ptr %0, ptr %4, align 8, !tbaa !145
  store ptr %1, ptr %5, align 8, !tbaa !145
  store ptr %2, ptr %6, align 8, !tbaa !147
  call void @llvm.lifetime.start.p0(i64 8, ptr %7) #13
  %8 = load ptr, ptr %6, align 8, !tbaa !147
  %9 = load double, ptr %8, align 8, !tbaa !143
  store double %9, ptr %7, align 8, !tbaa !143
  br label %10

10:                                               ; preds = %18, %3
  %11 = load ptr, ptr %4, align 8, !tbaa !145
  %12 = load ptr, ptr %5, align 8, !tbaa !145
  %13 = icmp ne ptr %11, %12
  br i1 %13, label %14, label %21

14:                                               ; preds = %10
  %15 = load double, ptr %7, align 8, !tbaa !143
  %16 = fptosi double %15 to i32
  %17 = load ptr, ptr %4, align 8, !tbaa !145
  store i32 %16, ptr %17, align 4, !tbaa !60
  br label %18

18:                                               ; preds = %14
  %19 = load ptr, ptr %4, align 8, !tbaa !145
  %20 = getelementptr inbounds nuw i32, ptr %19, i32 1
  store ptr %20, ptr %4, align 8, !tbaa !145
  br label %10, !llvm.loop !149

21:                                               ; preds = %10
  call void @llvm.lifetime.end.p0(i64 8, ptr %7) #13
  ret void
}

; Function Attrs: inlinehint mustprogress uwtable
define linkonce_odr void @_ZSt8__fill_aIPidEvT_S1_RKT0_(ptr noundef %0, ptr noundef %1, ptr noundef nonnull align 8 dereferenceable(8) %2) #10 comdat {
  %4 = alloca ptr, align 8
  %5 = alloca ptr, align 8
  %6 = alloca ptr, align 8
  store ptr %0, ptr %4, align 8, !tbaa !145
  store ptr %1, ptr %5, align 8, !tbaa !145
  store ptr %2, ptr %6, align 8, !tbaa !147
  %7 = load ptr, ptr %4, align 8, !tbaa !145
  %8 = load ptr, ptr %5, align 8, !tbaa !145
  %9 = load ptr, ptr %6, align 8, !tbaa !147
  call void @_ZSt9__fill_a1IPidEN9__gnu_cxx11__enable_ifIXsr11__is_scalarIT0_EE7__valueEvE6__typeET_S6_RKS3_(ptr noundef %7, ptr noundef %8, ptr noundef nonnull align 8 dereferenceable(8) %9)
  ret void
}

; Function Attrs: inlinehint mustprogress uwtable
define linkonce_odr void @_ZSt4fillIPidEvT_S1_RKT0_(ptr noundef %0, ptr noundef %1, ptr noundef nonnull align 8 dereferenceable(8) %2) #10 comdat {
  %4 = alloca ptr, align 8
  %5 = alloca ptr, align 8
  %6 = alloca ptr, align 8
  store ptr %0, ptr %4, align 8, !tbaa !145
  store ptr %1, ptr %5, align 8, !tbaa !145
  store ptr %2, ptr %6, align 8, !tbaa !147
  %7 = load ptr, ptr %4, align 8, !tbaa !145
  %8 = load ptr, ptr %5, align 8, !tbaa !145
  %9 = load ptr, ptr %6, align 8, !tbaa !147
  call void @_ZSt8__fill_aIPidEvT_S1_RKT0_(ptr noundef %7, ptr noundef %8, ptr noundef nonnull align 8 dereferenceable(8) %9)
  ret void
}

; Function Attrs: mustprogress uwtable
define void @_Z24gmx_pdbinfo_init_defaultP9t_pdbinfo(ptr noundef %0) #0 {
  %2 = alloca ptr, align 8
  %3 = alloca double, align 8
  store ptr %0, ptr %2, align 8, !tbaa !118
  %4 = load ptr, ptr %2, align 8, !tbaa !118
  %5 = getelementptr inbounds nuw %struct.t_pdbinfo, ptr %4, i32 0, i32 0
  store i32 0, ptr %5, align 4, !tbaa !134
  %6 = load ptr, ptr %2, align 8, !tbaa !118
  %7 = getelementptr inbounds nuw %struct.t_pdbinfo, ptr %6, i32 0, i32 1
  store i32 0, ptr %7, align 4, !tbaa !138
  %8 = load ptr, ptr %2, align 8, !tbaa !118
  %9 = getelementptr inbounds nuw %struct.t_pdbinfo, ptr %8, i32 0, i32 2
  store i8 32, ptr %9, align 4, !tbaa !139
  %10 = load ptr, ptr %2, align 8, !tbaa !118
  %11 = getelementptr inbounds nuw %struct.t_pdbinfo, ptr %10, i32 0, i32 3
  %12 = getelementptr inbounds [6 x i8], ptr %11, i64 0, i64 0
  store i8 0, ptr %12, align 1, !tbaa !76
  %13 = load ptr, ptr %2, align 8, !tbaa !118
  %14 = getelementptr inbounds nuw %struct.t_pdbinfo, ptr %13, i32 0, i32 4
  store float 1.000000e+00, ptr %14, align 4, !tbaa !140
  %15 = load ptr, ptr %2, align 8, !tbaa !118
  %16 = getelementptr inbounds nuw %struct.t_pdbinfo, ptr %15, i32 0, i32 5
  store float 0.000000e+00, ptr %16, align 4, !tbaa !141
  %17 = load ptr, ptr %2, align 8, !tbaa !118
  %18 = getelementptr inbounds nuw %struct.t_pdbinfo, ptr %17, i32 0, i32 6
  store i8 0, ptr %18, align 4, !tbaa !142
  %19 = load ptr, ptr %2, align 8, !tbaa !118
  %20 = getelementptr inbounds nuw %struct.t_pdbinfo, ptr %19, i32 0, i32 7
  %21 = getelementptr inbounds [6 x i32], ptr %20, i64 0, i64 0
  %22 = load ptr, ptr %2, align 8, !tbaa !118
  %23 = getelementptr inbounds nuw %struct.t_pdbinfo, ptr %22, i32 0, i32 7
  %24 = getelementptr inbounds [6 x i32], ptr %23, i64 0, i64 0
  %25 = getelementptr inbounds i32, ptr %24, i64 6
  call void @llvm.lifetime.start.p0(i64 8, ptr %3) #13
  store double 0.000000e+00, ptr %3, align 8, !tbaa !143
  call void @_ZSt4fillIPidEvT_S1_RKT0_(ptr noundef %21, ptr noundef %25, ptr noundef nonnull align 8 dereferenceable(8) %3)
  call void @llvm.lifetime.end.p0(i64 8, ptr %3) #13
  ret void
}