; Function Attrs: mustprogress nofree norecurse nosync nounwind willreturn memory(argmem: write) uwtable
define void @_Z24gmx_pdbinfo_init_defaultP9t_pdbinfo(ptr noundef writeonly captures(none) initializes((0, 10), (16, 25), (28, 52)) %0) local_unnamed_addr #7 {
_ZSt4fillIPidEvT_S1_RKT0_.exit:
  store i32 0, ptr %0, align 4, !tbaa !69
  %1 = getelementptr inbounds nuw i8, ptr %0, i64 4
  store i32 0, ptr %1, align 4, !tbaa !73
  %2 = getelementptr inbounds nuw i8, ptr %0, i64 8
  store i8 32, ptr %2, align 4, !tbaa !74
  %3 = getelementptr inbounds nuw i8, ptr %0, i64 9
  store i8 0, ptr %3, align 1, !tbaa !26
  %4 = getelementptr inbounds nuw i8, ptr %0, i64 16
  store float 1.000000e+00, ptr %4, align 4, !tbaa !75
  %5 = getelementptr inbounds nuw i8, ptr %0, i64 20
  store float 0.000000e+00, ptr %5, align 4, !tbaa !76
  %6 = getelementptr inbounds nuw i8, ptr %0, i64 24
  store i8 0, ptr %6, align 4, !tbaa !77
  %scevgep = getelementptr nuw i8, ptr %0, i64 28
  tail call void @llvm.memset.p0.i64(ptr noundef nonnull align 4 dereferenceable(24) %scevgep, i8 0, i64 24, i1 false), !tbaa !33
  ret void
}